target datalayout = "e-m:e-p270:32:32-p271:32:32-p272:64:64-i64:64-i128:128-f80:128-n8:16:32:64-S128"
target triple = "x86_64-pc-linux-gnu"

%struct.JsonPathItem = type { i32, i32, ptr, %union.anon }
%union.anon = type { %struct.anon.5 }
%struct.anon.5 = type { i32, ptr, i32, i32 }
%struct.anon.4 = type { ptr, i32 }
%struct.anon.1 = type { i32, i32 }
%struct.anon.2 = type { i32, ptr }
%struct.anon.3 = type { i32, i32 }

@.str.1 = private unnamed_addr constant [11 x i8] c"jsonpath.c\00", align 1
@.str.36 = private unnamed_addr constant [36 x i8] c"unrecognized jsonpath item type: %d\00", align 1
@__func__.jspInitByBuffer = private unnamed_addr constant [16 x i8] c"jspInitByBuffer\00", align 1

; Function Attrs: nounwind uwtable
define dso_local void @jspInitByBuffer(ptr noundef %0, ptr noundef %1, i32 noundef %2) #0 {
  %4 = alloca ptr, align 8
  %5 = alloca ptr, align 8
  %6 = alloca i32, align 4
  store ptr %0, ptr %4, align 8
  store ptr %1, ptr %5, align 8
  store i32 %2, ptr %6, align 4
  %7 = load ptr, ptr %5, align 8
  %8 = load i32, ptr %6, align 4
  %9 = sext i32 %8 to i64
  %10 = getelementptr inbounds i8, ptr %7, i64 %9
  %11 = load ptr, ptr %4, align 8
  %12 = getelementptr inbounds nuw %struct.JsonPathItem, ptr %11, i32 0, i32 2
  store ptr %10, ptr %12, align 8
  br label %13

13:                                               ; preds = %3
  %14 = load ptr, ptr %5, align 8
  %15 = load i32, ptr %6, align 4
  %16 = sext i32 %15 to i64
  %17 = getelementptr inbounds i8, ptr %14, i64 %16
  %18 = load i8, ptr %17, align 1
  %19 = zext i8 %18 to i32
  %20 = load ptr, ptr %4, align 8
  %21 = getelementptr inbounds nuw %struct.JsonPathItem, ptr %20, i32 0, i32 0
  store i32 %19, ptr %21, align 8
  %22 = load i32, ptr %6, align 4
  %23 = add i32 %22, 1
  store i32 %23, ptr %6, align 4
  br label %24

24:                                               ; preds = %13
  %25 = load ptr, ptr %5, align 8
  %26 = load i32, ptr %6, align 4
  %27 = sext i32 %26 to i64
  %28 = getelementptr inbounds i8, ptr %25, i64 %27
  %29 = ptrtoint ptr %28 to i64
  %30 = add i64 %29, 3
  %31 = and i64 %30, -4
  %32 = load ptr, ptr %5, align 8
  %33 = ptrtoint ptr %32 to i64
  %34 = sub i64 %31, %33
  %35 = trunc i64 %34 to i32
  store i32 %35, ptr %6, align 4
  br label %36

36:                                               ; preds = %24
  %37 = load ptr, ptr %5, align 8
  %38 = load i32, ptr %6, align 4
  %39 = sext i32 %38 to i64
  %40 = getelementptr inbounds i8, ptr %37, i64 %39
  %41 = load i32, ptr %40, align 4
  %42 = load ptr, ptr %4, align 8
  %43 = getelementptr inbounds nuw %struct.JsonPathItem, ptr %42, i32 0, i32 1
  store i32 %41, ptr %43, align 4
  %44 = load i32, ptr %6, align 4
  %45 = sext i32 %44 to i64
  %46 = add i64 %45, 4
  %47 = trunc i64 %46 to i32
  store i32 %47, ptr %6, align 4
  br label %48

48:                                               ; preds = %36
  %49 = load ptr, ptr %4, align 8
  %50 = getelementptr inbounds nuw %struct.JsonPathItem, ptr %49, i32 0, i32 0
  %51 = load i32, ptr %50, align 8
  switch i32 %51, label %233 [
    i32 0, label %52
    i32 27, label %52
    i32 26, label %52
    i32 21, label %52
    i32 22, label %52
    i32 31, label %52
    i32 32, label %52
    i32 33, label %52
    i32 34, label %52
    i32 35, label %52
    i32 36, label %52
    i32 38, label %52
    i32 40, label %52
    i32 43, label %52
    i32 44, label %52
    i32 45, label %52
    i32 47, label %52
    i32 48, label %52
    i32 49, label %52
    i32 1, label %53
    i32 25, label %53
    i32 28, label %53
    i32 2, label %68
    i32 3, label %68
    i32 4, label %76
    i32 5, label %76
    i32 8, label %76
    i32 9, label %76
    i32 10, label %76
    i32 11, label %76
    i32 12, label %76
    i32 13, label %76
    i32 14, label %76
    i32 15, label %76
    i32 16, label %76
    i32 17, label %76
    i32 18, label %76
    i32 41, label %76
    i32 46, label %76
    i32 6, label %105
    i32 7, label %105
    i32 30, label %105
    i32 19, label %105
    i32 20, label %105
    i32 29, label %105
    i32 37, label %105
    i32 50, label %105
    i32 51, label %105
    i32 52, label %105
    i32 53, label %105
    i32 23, label %119
    i32 24, label %154
    i32 42, label %183
  ]

52:                                               ; preds = %48, %48, %48, %48, %48, %48, %48, %48, %48, %48, %48, %48, %48, %48, %48, %48, %48, %48, %48
  br label %246

53:                                               ; preds = %48, %48, %48
  br label %54

54:                                               ; preds = %53
  %55 = load ptr, ptr %5, align 8
  %56 = load i32, ptr %6, align 4
  %57 = sext i32 %56 to i64
  %58 = getelementptr inbounds i8, ptr %55, i64 %57
  %59 = load i32, ptr %58, align 4
  %60 = load ptr, ptr %4, align 8
  %61 = getelementptr inbounds nuw %struct.JsonPathItem, ptr %60, i32 0, i32 3
  %62 = getelementptr inbounds nuw %struct.anon.4, ptr %61, i32 0, i32 1
  store i32 %59, ptr %62, align 8
  %63 = load i32, ptr %6, align 4
  %64 = sext i32 %63 to i64
  %65 = add i64 %64, 4
  %66 = trunc i64 %65 to i32
  store i32 %66, ptr %6, align 4
  br label %67

67:                                               ; preds = %54
  br label %68

68:                                               ; preds = %48, %48, %67
  %69 = load ptr, ptr %5, align 8
  %70 = load i32, ptr %6, align 4
  %71 = sext i32 %70 to i64
  %72 = getelementptr inbounds i8, ptr %69, i64 %71
  %73 = load ptr, ptr %4, align 8
  %74 = getelementptr inbounds nuw %struct.JsonPathItem, ptr %73, i32 0, i32 3
  %75 = getelementptr inbounds nuw %struct.anon.4, ptr %74, i32 0, i32 0
  store ptr %72, ptr %75, align 8
  br label %246

76:                                               ; preds = %48, %48, %48, %48, %48, %48, %48, %48, %48, %48, %48, %48, %48, %48, %48
  br label %77

77:                                               ; preds = %76
  %78 = load ptr, ptr %5, align 8
  %79 = load i32, ptr %6, align 4
  %80 = sext i32 %79 to i64
  %81 = getelementptr inbounds i8, ptr %78, i64 %80
  %82 = load i32, ptr %81, align 4
  %83 = load ptr, ptr %4, align 8
  %84 = getelementptr inbounds nuw %struct.JsonPathItem, ptr %83, i32 0, i32 3
  %85 = getelementptr inbounds nuw %struct.anon.1, ptr %84, i32 0, i32 0
  store i32 %82, ptr %85, align 8
  %86 = load i32, ptr %6, align 4
  %87 = sext i32 %86 to i64
  %88 = add i64 %87, 4
  %89 = trunc i64 %88 to i32
  store i32 %89, ptr %6, align 4
  br label %90

90:                                               ; preds = %77
  br label %91

91:                                               ; preds = %90
  %92 = load ptr, ptr %5, align 8
  %93 = load i32, ptr %6, align 4
  %94 = sext i32 %93 to i64
  %95 = getelementptr inbounds i8, ptr %92, i64 %94
  %96 = load i32, ptr %95, align 4
  %97 = load ptr, ptr %4, align 8
  %98 = getelementptr inbounds nuw %struct.JsonPathItem, ptr %97, i32 0, i32 3
  %99 = getelementptr inbounds nuw %struct.anon.1, ptr %98, i32 0, i32 1
  store i32 %96, ptr %99, align 4
  %100 = load i32, ptr %6, align 4
  %101 = sext i32 %100 to i64
  %102 = add i64 %101, 4
  %103 = trunc i64 %102 to i32
  store i32 %103, ptr %6, align 4
  br label %104

104:                                              ; preds = %91
  br label %246

105:                                              ; preds = %48, %48, %48, %48, %48, %48, %48, %48, %48, %48, %48
  br label %106

106:                                              ; preds = %105
  %107 = load ptr, ptr %5, align 8
  %108 = load i32, ptr %6, align 4
  %109 = sext i32 %108 to i64
  %110 = getelementptr inbounds i8, ptr %107, i64 %109
  %111 = load i32, ptr %110, align 4
  %112 = load ptr, ptr %4, align 8
  %113 = getelementptr inbounds nuw %struct.JsonPathItem, ptr %112, i32 0, i32 3
  store i32 %111, ptr %113, align 8
  %114 = load i32, ptr %6, align 4
  %115 = sext i32 %114 to i64
  %116 = add i64 %115, 4
  %117 = trunc i64 %116 to i32
  store i32 %117, ptr %6, align 4
  br label %118

118:                                              ; preds = %106
  br label %246

119:                                              ; preds = %48
  br label %120

120:                                              ; preds = %119
  %121 = load ptr, ptr %5, align 8
  %122 = load i32, ptr %6, align 4
  %123 = sext i32 %122 to i64
  %124 = getelementptr inbounds i8, ptr %121, i64 %123
  %125 = load i32, ptr %124, align 4
  %126 = load ptr, ptr %4, align 8
  %127 = getelementptr inbounds nuw %struct.JsonPathItem, ptr %126, i32 0, i32 3
  %128 = getelementptr inbounds nuw %struct.anon.2, ptr %127, i32 0, i32 0
  store i32 %125, ptr %128, align 8
  %129 = load i32, ptr %6, align 4
  %130 = sext i32 %129 to i64
  %131 = add i64 %130, 4
  %132 = trunc i64 %131 to i32
  store i32 %132, ptr %6, align 4
  br label %133

133:                                              ; preds = %120
  br label %134

134:                                              ; preds = %133
  %135 = load ptr, ptr %5, align 8
  %136 = load i32, ptr %6, align 4
  %137 = sext i32 %136 to i64
  %138 = getelementptr inbounds i8, ptr %135, i64 %137
  %139 = load ptr, ptr %4, align 8
  %140 = getelementptr inbounds nuw %struct.JsonPathItem, ptr %139, i32 0, i32 3
  %141 = getelementptr inbounds nuw %struct.anon.2, ptr %140, i32 0, i32 1
  store ptr %138, ptr %141, align 8
  %142 = load ptr, ptr %4, align 8
  %143 = getelementptr inbounds nuw %struct.JsonPathItem, ptr %142, i32 0, i32 3
  %144 = getelementptr inbounds nuw %struct.anon.2, ptr %143, i32 0, i32 0
  %145 = load i32, ptr %144, align 8
  %146 = mul i32 %145, 2
  %147 = sext i32 %146 to i64
  %148 = mul i64 4, %147
  %149 = load i32, ptr %6, align 4
  %150 = sext i32 %149 to i64
  %151 = add i64 %150, %148
  %152 = trunc i64 %151 to i32
  store i32 %152, ptr %6, align 4
  br label %153

153:                                              ; preds = %134
  br label %246

154:                                              ; preds = %48
  br label %155

155:                                              ; preds = %154
  %156 = load ptr, ptr %5, align 8
  %157 = load i32, ptr %6, align 4
  %158 = sext i32 %157 to i64
  %159 = getelementptr inbounds i8, ptr %156, i64 %158
  %160 = load i32, ptr %159, align 4
  %161 = load ptr, ptr %4, align 8
  %162 = getelementptr inbounds nuw %struct.JsonPathItem, ptr %161, i32 0, i32 3
  %163 = getelementptr inbounds nuw %struct.anon.3, ptr %162, i32 0, i32 0
  store i32 %160, ptr %163, align 8
  %164 = load i32, ptr %6, align 4
  %165 = sext i32 %164 to i64
  %166 = add i64 %165, 4
  %167 = trunc i64 %166 to i32
  store i32 %167, ptr %6, align 4
  br label %168

168:                                              ; preds = %155
  br label %169

169:                                              ; preds = %168
  %170 = load ptr, ptr %5, align 8
  %171 = load i32, ptr %6, align 4
  %172 = sext i32 %171 to i64
  %173 = getelementptr inbounds i8, ptr %170, i64 %172
  %174 = load i32, ptr %173, align 4
  %175 = load ptr, ptr %4, align 8
  %176 = getelementptr inbounds nuw %struct.JsonPathItem, ptr %175, i32 0, i32 3
  %177 = getelementptr inbounds nuw %struct.anon.3, ptr %176, i32 0, i32 1
  store i32 %174, ptr %177, align 4
  %178 = load i32, ptr %6, align 4
  %179 = sext i32 %178 to i64
  %180 = add i64 %179, 4
  %181 = trunc i64 %180 to i32
  store i32 %181, ptr %6, align 4
  br label %182

182:                                              ; preds = %169
  br label %246

183:                                              ; preds = %48
  br label %184

184:                                              ; preds = %183
  %185 = load ptr, ptr %5, align 8
  %186 = load i32, ptr %6, align 4
  %187 = sext i32 %186 to i64
  %188 = getelementptr inbounds i8, ptr %185, i64 %187
  %189 = load i32, ptr %188, align 4
  %190 = load ptr, ptr %4, align 8
  %191 = getelementptr inbounds nuw %struct.JsonPathItem, ptr %190, i32 0, i32 3
  %192 = getelementptr inbounds nuw %struct.anon.5, ptr %191, i32 0, i32 3
  store i32 %189, ptr %192, align 4
  %193 = load i32, ptr %6, align 4
  %194 = sext i32 %193 to i64
  %195 = add i64 %194, 4
  %196 = trunc i64 %195 to i32
  store i32 %196, ptr %6, align 4
  br label %197

197:                                              ; preds = %184
  br label %198

198:                                              ; preds = %197
  %199 = load ptr, ptr %5, align 8
  %200 = load i32, ptr %6, align 4
  %201 = sext i32 %200 to i64
  %202 = getelementptr inbounds i8, ptr %199, i64 %201
  %203 = load i32, ptr %202, align 4
  %204 = load ptr, ptr %4, align 8
  %205 = getelementptr inbounds nuw %struct.JsonPathItem, ptr %204, i32 0, i32 3
  %206 = getelementptr inbounds nuw %struct.anon.5, ptr %205, i32 0, i32 0
  store i32 %203, ptr %206, align 8
  %207 = load i32, ptr %6, align 4
  %208 = sext i32 %207 to i64
  %209 = add i64 %208, 4
  %210 = trunc i64 %209 to i32
  store i32 %210, ptr %6, align 4
  br label %211

211:                                              ; preds = %198
  br label %212

212:                                              ; preds = %211
  %213 = load ptr, ptr %5, align 8
  %214 = load i32, ptr %6, align 4
  %215 = sext i32 %214 to i64
  %216 = getelementptr inbounds i8, ptr %213, i64 %215
  %217 = load i32, ptr %216, align 4
  %218 = load ptr, ptr %4, align 8
  %219 = getelementptr inbounds nuw %struct.JsonPathItem, ptr %218, i32 0, i32 3
  %220 = getelementptr inbounds nuw %struct.anon.5, ptr %219, i32 0, i32 2
  store i32 %217, ptr %220, align 8
  %221 = load i32, ptr %6, align 4
  %222 = sext i32 %221 to i64
  %223 = add i64 %222, 4
  %224 = trunc i64 %223 to i32
  store i32 %224, ptr %6, align 4
  br label %225

225:                                              ; preds = %212
  %226 = load ptr, ptr %5, align 8
  %227 = load i32, ptr %6, align 4
  %228 = sext i32 %227 to i64
  %229 = getelementptr inbounds i8, ptr %226, i64 %228
  %230 = load ptr, ptr %4, align 8
  %231 = getelementptr inbounds nuw %struct.JsonPathItem, ptr %230, i32 0, i32 3
  %232 = getelementptr inbounds nuw %struct.anon.5, ptr %231, i32 0, i32 1
  store ptr %229, ptr %232, align 8
  br label %246

233:                                              ; preds = %48
  br label %234

234:                                              ; preds = %233
  br i1 true, label %235, label %237

235:                                              ; preds = %234
  %236 = call zeroext i1 @errstart_cold(i32 noundef 21, ptr noundef null) #11
  br i1 %236, label %239, label %244

237:                                              ; preds = %234
  %238 = call zeroext i1 @errstart(i32 noundef 21, ptr noundef null)
  br i1 %238, label %239, label %244

239:                                              ; preds = %237, %235
  %240 = load ptr, ptr %4, align 8
  %241 = getelementptr inbounds nuw %struct.JsonPathItem, ptr %240, i32 0, i32 0
  %242 = load i32, ptr %241, align 8
  %243 = call i32 (ptr, ...) @errmsg_internal(ptr noundef @.str.36, i32 noundef %242)
  call void @errfinish(ptr noundef @.str.1, i32 noundef 1076, ptr noundef @__func__.jspInitByBuffer)
  br label %244

244:                                              ; preds = %239, %237, %235
  unreachable

245:                                              ; No predecessors!
  br label %246

246:                                              ; preds = %245, %225, %182, %153, %118, %104, %68, %52
  ret void
}