; Function Attrs: nounwind uwtable
define dso_local void @jspInitByBuffer(ptr noundef captures(none) initializes((0, 16)) %0, ptr noundef %1, i32 noundef %2) local_unnamed_addr #0 {
  %4 = sext i32 %2 to i64
  %5 = getelementptr inbounds i8, ptr %1, i64 %4
  %6 = getelementptr inbounds nuw i8, ptr %0, i64 8
  store ptr %5, ptr %6, align 8
  %7 = load i8, ptr %5, align 1
  %8 = zext i8 %7 to i32
  store i32 %8, ptr %0, align 8
  %9 = add i32 %2, 1
  %10 = sext i32 %9 to i64
  %11 = getelementptr inbounds i8, ptr %1, i64 %10
  %12 = ptrtoint ptr %11 to i64
  %13 = add i64 %12, 3
  %14 = and i64 %13, 4294967292
  %15 = ptrtoint ptr %1 to i64
  %16 = sub i64 %14, %15
  %sext = shl i64 %16, 32
  %17 = ashr exact i64 %sext, 32
  %18 = getelementptr inbounds i8, ptr %1, i64 %17
  %19 = load i32, ptr %18, align 4
  %20 = getelementptr inbounds nuw i8, ptr %0, i64 4
  store i32 %19, ptr %20, align 4
  %21 = trunc i64 %16 to i32
  %22 = add i32 %21, 4
  switch i8 %7, label %80 [
    i8 0, label %84
    i8 27, label %84
    i8 26, label %84
    i8 21, label %84
    i8 22, label %84
    i8 31, label %84
    i8 32, label %84
    i8 33, label %84
    i8 34, label %84
    i8 35, label %84
    i8 36, label %84
    i8 38, label %84
    i8 40, label %84
    i8 43, label %84
    i8 44, label %84
    i8 45, label %84
    i8 47, label %84
    i8 48, label %84
    i8 49, label %84
    i8 1, label %23
    i8 25, label %23
    i8 28, label %23
    i8 2, label %29
    i8 3, label %29
    i8 4, label %33
    i8 5, label %33
    i8 8, label %33
    i8 9, label %33
    i8 10, label %33
    i8 11, label %33
    i8 12, label %33
    i8 13, label %33
    i8 14, label %33
    i8 15, label %33
    i8 16, label %33
    i8 17, label %33
    i8 18, label %33
    i8 41, label %33
    i8 46, label %33
    i8 6, label %42
    i8 7, label %42
    i8 30, label %42
    i8 19, label %42
    i8 20, label %42
    i8 29, label %42
    i8 37, label %42
    i8 50, label %42
    i8 51, label %42
    i8 52, label %42
    i8 53, label %42
    i8 23, label %47
    i8 24, label %55
    i8 42, label %64
  ]

23:                                               ; preds = %3, %3, %3
  %24 = sext i32 %22 to i64
  %25 = getelementptr inbounds i8, ptr %1, i64 %24
  %26 = load i32, ptr %25, align 4
  %27 = getelementptr inbounds nuw i8, ptr %0, i64 24
  store i32 %26, ptr %27, align 8
  %28 = add i32 %21, 8
  br label %29

29:                                               ; preds = %23, %3, %3
  %.0 = phi i32 [ %22, %3 ], [ %22, %3 ], [ %28, %23 ]
  %30 = sext i32 %.0 to i64
  %31 = getelementptr inbounds i8, ptr %1, i64 %30
  %32 = getelementptr inbounds nuw i8, ptr %0, i64 16
  store ptr %31, ptr %32, align 8
  br label %84

33:                                               ; preds = %3, %3, %3, %3, %3, %3, %3, %3, %3, %3, %3, %3, %3, %3, %3
  %34 = sext i32 %22 to i64
  %35 = getelementptr inbounds i8, ptr %1, i64 %34
  %36 = load i32, ptr %35, align 4
  %37 = getelementptr inbounds nuw i8, ptr %0, i64 16
  store i32 %36, ptr %37, align 8
  %sext71 = add i64 %sext, 34359738368
  %38 = ashr exact i64 %sext71, 32
  %39 = getelementptr inbounds i8, ptr %1, i64 %38
  %40 = load i32, ptr %39, align 4
  %41 = getelementptr inbounds nuw i8, ptr %0, i64 20
  store i32 %40, ptr %41, align 4
  br label %84

42:                                               ; preds = %3, %3, %3, %3, %3, %3, %3, %3, %3, %3, %3
  %43 = sext i32 %22 to i64
  %44 = getelementptr inbounds i8, ptr %1, i64 %43
  %45 = load i32, ptr %44, align 4
  %46 = getelementptr inbounds nuw i8, ptr %0, i64 16
  store i32 %45, ptr %46, align 8
  br label %84

47:                                               ; preds = %3
  %48 = sext i32 %22 to i64
  %49 = getelementptr inbounds i8, ptr %1, i64 %48
  %50 = load i32, ptr %49, align 4
  %51 = getelementptr inbounds nuw i8, ptr %0, i64 16
  store i32 %50, ptr %51, align 8
  %sext70 = add i64 %sext, 34359738368
  %52 = ashr exact i64 %sext70, 32
  %53 = getelementptr inbounds i8, ptr %1, i64 %52
  %54 = getelementptr inbounds nuw i8, ptr %0, i64 24
  store ptr %53, ptr %54, align 8
  br label %84

55:                                               ; preds = %3
  %56 = sext i32 %22 to i64
  %57 = getelementptr inbounds i8, ptr %1, i64 %56
  %58 = load i32, ptr %57, align 4
  %59 = getelementptr inbounds nuw i8, ptr %0, i64 16
  store i32 %58, ptr %59, align 8
  %sext69 = add i64 %sext, 34359738368
  %60 = ashr exact i64 %sext69, 32
  %61 = getelementptr inbounds i8, ptr %1, i64 %60
  %62 = load i32, ptr %61, align 4
  %63 = getelementptr inbounds nuw i8, ptr %0, i64 20
  store i32 %62, ptr %63, align 4
  br label %84

64:                                               ; preds = %3
  %65 = sext i32 %22 to i64
  %66 = getelementptr inbounds i8, ptr %1, i64 %65
  %67 = load i32, ptr %66, align 4
  %68 = getelementptr inbounds nuw i8, ptr %0, i64 16
  %69 = getelementptr inbounds nuw i8, ptr %0, i64 36
  store i32 %67, ptr %69, align 4
  %sext66 = add i64 %sext, 34359738368
  %70 = ashr exact i64 %sext66, 32
  %71 = getelementptr inbounds i8, ptr %1, i64 %70
  %72 = load i32, ptr %71, align 4
  store i32 %72, ptr %68, align 8
  %sext67 = add i64 %sext, 51539607552
  %73 = ashr exact i64 %sext67, 32
  %74 = getelementptr inbounds i8, ptr %1, i64 %73
  %75 = load i32, ptr %74, align 4
  %76 = getelementptr inbounds nuw i8, ptr %0, i64 32
  store i32 %75, ptr %76, align 8
  %sext68 = add i64 %sext, 68719476736
  %77 = ashr exact i64 %sext68, 32
  %78 = getelementptr inbounds i8, ptr %1, i64 %77
  %79 = getelementptr inbounds nuw i8, ptr %0, i64 24
  store ptr %78, ptr %79, align 8
  br label %84

80:                                               ; preds = %3
  %81 = tail call zeroext i1 @errstart_cold(i32 noundef 21, ptr noundef null) #14
  tail call void @llvm.assume(i1 %81)
  %82 = load i32, ptr %0, align 8
  %83 = tail call i32 (ptr, ...) @errmsg_internal(ptr noundef nonnull @.str.36, i32 noundef %82) #13
  tail call void @errfinish(ptr noundef nonnull @.str.1, i32 noundef 1076, ptr noundef nonnull @__func__.jspInitByBuffer) #13
  unreachable

84:                                               ; preds = %3, %3, %3, %3, %3, %3, %3, %3, %3, %3, %3, %3, %3, %3, %3, %3, %3, %3, %3, %64, %55, %47, %42, %33, %29
  ret void
}